target datalayout = "e-m:e-p270:32:32-p271:32:32-p272:64:64-i64:64-i128:128-f80:128-n8:16:32:64-S128"
target triple = "x86_64-pc-linux-gnu"

@.str.13 = private unnamed_addr constant [31 x i8] c"plugins/imageio/format/xcf/bpp\00", align 1

; Function Attrs: nounwind uwtable
define internal void @bpp_combobox_changed(ptr noundef %0, ptr noundef %1) #0 {
  %3 = alloca ptr, align 8
  %4 = alloca ptr, align 8
  %5 = alloca i32, align 4
  store ptr %0, ptr %3, align 8, !tbaa !130
  store ptr %1, ptr %4, align 8, !tbaa !13
  call void @llvm.lifetime.start.p0(i64 4, ptr %5) #12
  %6 = load ptr, ptr %3, align 8, !tbaa !130
  %7 = call i32 @dt_bauhaus_combobox_get(ptr noundef %6)
  store i32 %7, ptr %5, align 4, !tbaa !14
  %8 = load i32, ptr %5, align 4, !tbaa !14
  %9 = icmp eq i32 %8, 1
  br i1 %9, label %10, label %11

10:                                               ; preds = %2
  call void @dt_conf_set_int(ptr noundef @.str.13, i32 noundef 16)
  br label %17

11:                                               ; preds = %2
  %12 = load i32, ptr %5, align 4, !tbaa !14
  %13 = icmp eq i32 %12, 2
  br i1 %13, label %14, label %15

14:                                               ; preds = %11
  call void @dt_conf_set_int(ptr noundef @.str.13, i32 noundef 32)
  br label %16

15:                                               ; preds = %11
  call void @dt_conf_set_int(ptr noundef @.str.13, i32 noundef 8)
  br label %16

16:                                               ; preds = %15, %14
  br label %17

17:                                               ; preds = %16, %10
  call void @llvm.lifetime.end.p0(i64 4, ptr %5) #12
  ret void
}