; Function Attrs: nounwind uwtable
define internal void @bpp_combobox_changed(ptr noundef %0, ptr readnone captures(none) %1) #1 {
  %3 = tail call i32 @dt_bauhaus_combobox_get(ptr noundef %0) #17
  %switch.selectcmp = icmp eq i32 %3, 2
  %switch.select = select i1 %switch.selectcmp, i32 32, i32 8
  %switch.selectcmp2 = icmp eq i32 %3, 1
  %switch.select3 = select i1 %switch.selectcmp2, i32 16, i32 %switch.select
  tail call void @dt_conf_set_int(ptr noundef nonnull @.str.13, i32 noundef %switch.select3) #17
  ret void
}